target datalayout = "e-m:e-p270:32:32-p271:32:32-p272:64:64-i64:64-i128:128-f80:128-n8:16:32:64-S128"
target triple = "x86_64-pc-linux-gnu"

%struct.FunctionCallInfoBaseData = type { ptr, ptr, ptr, i32, i8, i16, [0 x %struct.NullableDatum] }
%struct.NullableDatum = type { i64, i8 }

@.str.2 = private unnamed_addr constant [13 x i8] c"arrayfuncs.c\00", align 1
@.str.41 = private unnamed_addr constant [50 x i8] c"dimension array or low bound array cannot be null\00", align 1
@.str.42 = private unnamed_addr constant [39 x i8] c"could not determine data type of input\00", align 1
@__func__.array_fill = private unnamed_addr constant [11 x i8] c"array_fill\00", align 1

; Function Attrs: inlinehint nounwind uwtable
define internal i64 @PointerGetDatum(ptr noundef %0) #2 {
  %2 = alloca ptr, align 8
  store ptr %0, ptr %2, align 8
  %3 = load ptr, ptr %2, align 8
  %4 = ptrtoint ptr %3 to i64
  ret i64 %4
}

; Function Attrs: inlinehint nounwind uwtable
define internal ptr @DatumGetPointer(i64 noundef %0) #2 {
  %2 = alloca i64, align 8
  store i64 %0, ptr %2, align 8
  %3 = load i64, ptr %2, align 8
  %4 = inttoptr i64 %3 to ptr
  ret ptr %4
}

; Function Attrs: nounwind uwtable
define dso_local i64 @array_fill(ptr noundef %0) #0 {
  %2 = alloca ptr, align 8
  %3 = alloca ptr, align 8
  %4 = alloca ptr, align 8
  %5 = alloca i32, align 4
  %6 = alloca i64, align 8
  %7 = alloca i8, align 1
  store ptr %0, ptr %2, align 8
  call void @llvm.lifetime.start.p0(i64 8, ptr %3) #11
  call void @llvm.lifetime.start.p0(i64 8, ptr %4) #11
  call void @llvm.lifetime.start.p0(i64 4, ptr %5) #11
  call void @llvm.lifetime.start.p0(i64 8, ptr %6) #11
  call void @llvm.lifetime.start.p0(i64 1, ptr %7) #11
  %8 = load ptr, ptr %2, align 8
  %9 = getelementptr inbounds nuw %struct.FunctionCallInfoBaseData, ptr %8, i32 0, i32 6
  %10 = getelementptr inbounds [0 x %struct.NullableDatum], ptr %9, i64 0, i64 1
  %11 = getelementptr inbounds nuw %struct.NullableDatum, ptr %10, i32 0, i32 1
  %12 = load i8, ptr %11, align 8, !range !4, !noundef !5
  %13 = trunc i8 %12 to i1
  br i1 %13, label %14, label %26

14:                                               ; preds = %1
  br label %15

15:                                               ; preds = %14
  br i1 true, label %16, label %18

16:                                               ; preds = %15
  %17 = call zeroext i1 @errstart_cold(i32 noundef 21, ptr noundef null) #13
  br i1 %17, label %20, label %23

18:                                               ; preds = %15
  %19 = call zeroext i1 @errstart(i32 noundef 21, ptr noundef null)
  br i1 %19, label %20, label %23

20:                                               ; preds = %18, %16
  %21 = call i32 @errcode(i32 noundef 67108994)
  %22 = call i32 (ptr, ...) @errmsg(ptr noundef @.str.41)
  call void @errfinish(ptr noundef @.str.2, i32 noundef 6042, ptr noundef @__func__.array_fill)
  br label %23

23:                                               ; preds = %20, %18, %16
  unreachable

24:                                               ; No predecessors!
  br label %25

25:                                               ; preds = %24
  br label %26

26:                                               ; preds = %25, %1
  %27 = load ptr, ptr %2, align 8
  %28 = getelementptr inbounds nuw %struct.FunctionCallInfoBaseData, ptr %27, i32 0, i32 6
  %29 = getelementptr inbounds [0 x %struct.NullableDatum], ptr %28, i64 0, i64 1
  %30 = getelementptr inbounds nuw %struct.NullableDatum, ptr %29, i32 0, i32 0
  %31 = load i64, ptr %30, align 8
  %32 = call ptr @DatumGetPointer(i64 noundef %31)
  %33 = call ptr @pg_detoast_datum(ptr noundef %32)
  store ptr %33, ptr %3, align 8
  %34 = load ptr, ptr %2, align 8
  %35 = getelementptr inbounds nuw %struct.FunctionCallInfoBaseData, ptr %34, i32 0, i32 6
  %36 = getelementptr inbounds [0 x %struct.NullableDatum], ptr %35, i64 0, i64 0
  %37 = getelementptr inbounds nuw %struct.NullableDatum, ptr %36, i32 0, i32 1
  %38 = load i8, ptr %37, align 8, !range !4, !noundef !5
  %39 = trunc i8 %38 to i1
  br i1 %39, label %46, label %40

40:                                               ; preds = %26
  %41 = load ptr, ptr %2, align 8
  %42 = getelementptr inbounds nuw %struct.FunctionCallInfoBaseData, ptr %41, i32 0, i32 6
  %43 = getelementptr inbounds [0 x %struct.NullableDatum], ptr %42, i64 0, i64 0
  %44 = getelementptr inbounds nuw %struct.NullableDatum, ptr %43, i32 0, i32 0
  %45 = load i64, ptr %44, align 8
  store i64 %45, ptr %6, align 8
  store i8 0, ptr %7, align 1
  br label %47

46:                                               ; preds = %26
  store i64 0, ptr %6, align 8
  store i8 1, ptr %7, align 1
  br label %47

47:                                               ; preds = %46, %40
  %48 = load ptr, ptr %2, align 8
  %49 = getelementptr inbounds nuw %struct.FunctionCallInfoBaseData, ptr %48, i32 0, i32 0
  %50 = load ptr, ptr %49, align 8
  %51 = call i32 @get_fn_expr_argtype(ptr noundef %50, i32 noundef 0)
  store i32 %51, ptr %5, align 4
  %52 = load i32, ptr %5, align 4
  %53 = icmp ne i32 %52, 0
  br i1 %53, label %65, label %54

54:                                               ; preds = %47
  br label %55

55:                                               ; preds = %54
  br i1 true, label %56, label %58

56:                                               ; preds = %55
  %57 = call zeroext i1 @errstart_cold(i32 noundef 21, ptr noundef null) #13
  br i1 %57, label %60, label %62

58:                                               ; preds = %55
  %59 = call zeroext i1 @errstart(i32 noundef 21, ptr noundef null)
  br i1 %59, label %60, label %62

60:                                               ; preds = %58, %56
  %61 = call i32 (ptr, ...) @errmsg_internal(ptr noundef @.str.42)
  call void @errfinish(ptr noundef @.str.2, i32 noundef 6059, ptr noundef @__func__.array_fill)
  br label %62

62:                                               ; preds = %60, %58, %56
  unreachable

63:                                               ; No predecessors!
  br label %64

64:                                               ; preds = %63
  br label %65

65:                                               ; preds = %64, %47
  %66 = load ptr, ptr %3, align 8
  %67 = load i64, ptr %6, align 8
  %68 = load i8, ptr %7, align 1, !range !4, !noundef !5
  %69 = trunc i8 %68 to i1
  %70 = load i32, ptr %5, align 4
  %71 = load ptr, ptr %2, align 8
  %72 = call ptr @array_fill_internal(ptr noundef %66, ptr noundef null, i64 noundef %67, i1 noundef zeroext %69, i32 noundef %70, ptr noundef %71)
  store ptr %72, ptr %4, align 8
  %73 = load ptr, ptr %4, align 8
  %74 = call i64 @PointerGetDatum(ptr noundef %73)
  call void @llvm.lifetime.end.p0(i64 1, ptr %7) #11
  call void @llvm.lifetime.end.p0(i64 8, ptr %6) #11
  call void @llvm.lifetime.end.p0(i64 4, ptr %5) #11
  call void @llvm.lifetime.end.p0(i64 8, ptr %4) #11
  call void @llvm.lifetime.end.p0(i64 8, ptr %3) #11
  ret i64 %74
}