; Function Attrs: nounwind uwtable
define dso_local noundef i64 @array_fill(ptr noundef readonly captures(none) %0) local_unnamed_addr #0 {
  %2 = getelementptr inbounds nuw i8, ptr %0, i64 32
  %3 = getelementptr inbounds nuw i8, ptr %0, i64 56
  %4 = load i8, ptr %3, align 8, !range !4, !noundef !5
  %5 = trunc nuw i8 %4 to i1
  br i1 %5, label %6, label %10

6:                                                ; preds = %1
  %7 = tail call zeroext i1 @errstart_cold(i32 noundef 21, ptr noundef null) #20
  tail call void @llvm.assume(i1 %7)
  %8 = tail call i32 @errcode(i32 noundef 67108994) #18
  %9 = tail call i32 (ptr, ...) @errmsg(ptr noundef nonnull @.str.41) #18
  tail call void @errfinish(ptr noundef nonnull @.str.2, i32 noundef 6042, ptr noundef nonnull @__func__.array_fill) #18
  unreachable

10:                                               ; preds = %1
  %11 = getelementptr inbounds nuw i8, ptr %0, i64 48
  %12 = load i64, ptr %11, align 8
  %13 = inttoptr i64 %12 to ptr
  %14 = tail call ptr @pg_detoast_datum(ptr noundef %13) #18
  %15 = getelementptr inbounds nuw i8, ptr %0, i64 40
  %16 = load i8, ptr %15, align 8, !range !4, !noundef !5
  %17 = trunc nuw i8 %16 to i1
  br i1 %17, label %20, label %18

18:                                               ; preds = %10
  %19 = load i64, ptr %2, align 8
  br label %20

20:                                               ; preds = %10, %18
  %.011 = phi i64 [ %19, %18 ], [ 0, %10 ]
  %21 = load ptr, ptr %0, align 8
  %22 = tail call i32 @get_fn_expr_argtype(ptr noundef %21, i32 noundef 0) #18
  %.not = icmp eq i32 %22, 0
  br i1 %.not, label %23, label %26

23:                                               ; preds = %20
  %24 = tail call zeroext i1 @errstart_cold(i32 noundef 21, ptr noundef null) #20
  tail call void @llvm.assume(i1 %24)
  %25 = tail call i32 (ptr, ...) @errmsg_internal(ptr noundef nonnull @.str.42) #18
  tail call void @errfinish(ptr noundef nonnull @.str.2, i32 noundef 6059, ptr noundef nonnull @__func__.array_fill) #18
  unreachable

26:                                               ; preds = %20
  %27 = tail call fastcc ptr @array_fill_internal(ptr noundef %14, ptr noundef null, i64 noundef %.011, i1 noundef zeroext %17, i32 noundef %22, ptr noundef nonnull %0)
  %28 = ptrtoint ptr %27 to i64
  ret i64 %28
}